; ModuleID = 'bench/openssl/original/nsseq.ll'
source_filename = "bench/openssl/original/nsseq.ll"
target datalayout = "e-m:e-p270:32:32-p271:32:32-p272:64:64-i64:64-i128:128-f80:128-n8:16:32:64-S128"
target triple = "x86_64-pc-linux-gnu"

%struct.ASN1_TEMPLATE_st = type { i64, i64, i64, ptr, ptr }

@NETSCAPE_CERT_SEQUENCE_it.local_it = internal constant { i8, [7 x i8], i64, ptr, i64, ptr, i64, ptr } { i8 1, [7 x i8] zeroinitializer, i64 16, ptr @NETSCAPE_CERT_SEQUENCE_seq_tt, i64 2, ptr @NETSCAPE_CERT_SEQUENCE_aux, i64 16, ptr @.str }, align 8
@NETSCAPE_CERT_SEQUENCE_seq_tt = internal constant [2 x %struct.ASN1_TEMPLATE_st] [%struct.ASN1_TEMPLATE_st { i64 0, i64 0, i64 0, ptr @.str.1, ptr @ASN1_OBJECT_it }, %struct.ASN1_TEMPLATE_st { i64 149, i64 0, i64 8, ptr @.str.2, ptr @X509_it }], align 16
@.str = private unnamed_addr constant [23 x i8] c"NETSCAPE_CERT_SEQUENCE\00", align 1
@.str.1 = private unnamed_addr constant [5 x i8] c"type\00", align 1
@.str.2 = private unnamed_addr constant [6 x i8] c"certs\00", align 1
@NETSCAPE_CERT_SEQUENCE_aux = internal constant { ptr, i32, i32, i32, [4 x i8], ptr, i32, [4 x i8], ptr } { ptr null, i32 0, i32 0, i32 0, [4 x i8] zeroinitializer, ptr @nsseq_cb, i32 0, [4 x i8] zeroinitializer, ptr null }, align 8

; Function Attrs: mustprogress nofree norecurse nosync nounwind willreturn memory(none) uwtable
define noundef nonnull ptr @NETSCAPE_CERT_SEQUENCE_it() local_unnamed_addr #0 {
  ret ptr @NETSCAPE_CERT_SEQUENCE_it.local_it
}

; Function Attrs: nounwind uwtable
define ptr @d2i_NETSCAPE_CERT_SEQUENCE(ptr noundef %0, ptr noundef %1, i64 noundef %2) local_unnamed_addr #1 {
  %4 = tail call ptr @ASN1_item_d2i(ptr noundef %0, ptr noundef %1, i64 noundef %2, ptr noundef nonnull @NETSCAPE_CERT_SEQUENCE_it.local_it) #3
  ret ptr %4
}

declare ptr @ASN1_item_d2i(ptr noundef, ptr noundef, i64 noundef, ptr noundef) local_unnamed_addr #2

; Function Attrs: nounwind uwtable
define i32 @i2d_NETSCAPE_CERT_SEQUENCE(ptr noundef %0, ptr noundef %1) local_unnamed_addr #1 {
  %3 = tail call i32 @ASN1_item_i2d(ptr noundef %0, ptr noundef %1, ptr noundef nonnull @NETSCAPE_CERT_SEQUENCE_it.local_it) #3
  ret i32 %3
}

declare i32 @ASN1_item_i2d(ptr noundef, ptr noundef, ptr noundef) local_unnamed_addr #2

; Function Attrs: nounwind uwtable
define ptr @NETSCAPE_CERT_SEQUENCE_new() local_unnamed_addr #1 {
  %1 = tail call ptr @ASN1_item_new(ptr noundef nonnull @NETSCAPE_CERT_SEQUENCE_it.local_it) #3
  ret ptr %1
}

declare ptr @ASN1_item_new(ptr noundef) local_unnamed_addr #2

; Function Attrs: nounwind uwtable
define void @NETSCAPE_CERT_SEQUENCE_free(ptr noundef %0) local_unnamed_addr #1 {
  tail call void @ASN1_item_free(ptr noundef %0, ptr noundef nonnull @NETSCAPE_CERT_SEQUENCE_it.local_it) #3
  ret void
}

declare void @ASN1_item_free(ptr noundef, ptr noundef) local_unnamed_addr #2

declare ptr @ASN1_OBJECT_it() #2

declare ptr @X509_it() #2

; Function Attrs: nounwind uwtable
define internal noundef i32 @nsseq_cb(i32 noundef %0, ptr noundef readonly captures(none) %1, ptr readnone captures(none) %2, ptr readnone captures(none) %3) #1 {
  %5 = icmp eq i32 %0, 1
  br i1 %5, label %6, label %9

6:                                                ; preds = %4
  %7 = load ptr, ptr %1, align 8, !tbaa !3
  %8 = tail call ptr @OBJ_nid2obj(i32 noundef 79) #3
  store ptr %8, ptr %7, align 8, !tbaa !8
  br label %9

9:                                                ; preds = %6, %4
  ret i32 1
}

declare ptr @OBJ_nid2obj(i32 noundef) local_unnamed_addr #2


!llvm.module.flags = !{!0, !1, !2}

!0 = !{i32 1, !"wchar_size", i32 4}
!1 = !{i32 8, !"PIC Level", i32 2}
!2 = !{i32 7, !"uwtable", i32 2}
!3 = !{!4, !4, i64 0}
!4 = !{!"p1 _ZTS13ASN1_VALUE_st", !5, i64 0}
!5 = !{!"any pointer", !6, i64 0}
!6 = !{!"omnipotent char", !7, i64 0}
!7 = !{!"Simple C/C++ TBAA"}
!8 = !{!9, !10, i64 0}
!9 = !{!"Netscape_certificate_sequence", !10, i64 0, !11, i64 8}
!10 = !{!"p1 _ZTS14asn1_object_st", !5, i64 0}
!11 = !{!"p1 _ZTS13stack_st_X509", !5, i64 0}
